target datalayout = "e-m:e-p270:32:32-p271:32:32-p272:64:64-i64:64-i128:128-f80:128-n8:16:32:64-S128"
target triple = "x86_64-pc-linux-gnu"

@mainctx = internal global ptr null, align 8
@nullprov = internal global ptr null, align 8
@.str = private unnamed_addr constant [22 x i8] c"evp_test_name_parsing\00", align 1
@.str.1 = private unnamed_addr constant [25 x i8] c"test_alternative_default\00", align 1
@.str.2 = private unnamed_addr constant [27 x i8] c"test_d2i_AutoPrivateKey_ex\00", align 1
@.str.3 = private unnamed_addr constant [17 x i8] c"test_new_keytype\00", align 1
@.str.4 = private unnamed_addr constant [23 x i8] c"test_d2i_PrivateKey_ex\00", align 1
@.str.5 = private unnamed_addr constant [27 x i8] c"test_ec_tofrom_data_select\00", align 1
@.str.6 = private unnamed_addr constant [28 x i8] c"test_ecx_tofrom_data_select\00", align 1
@.str.7 = private unnamed_addr constant [23 x i8] c"test_ec_d2i_i2d_pubkey\00", align 1
@.str.8 = private unnamed_addr constant [28 x i8] c"test_sm2_tofrom_data_select\00", align 1
@.str.9 = private unnamed_addr constant [16 x i8] c"test_dsa_todata\00", align 1
@.str.10 = private unnamed_addr constant [28 x i8] c"test_dsa_tofrom_data_select\00", align 1
@.str.11 = private unnamed_addr constant [30 x i8] c"test_dsa_fromdata_digest_prop\00", align 1
@.str.12 = private unnamed_addr constant [27 x i8] c"test_dh_tofrom_data_select\00", align 1
@.str.13 = private unnamed_addr constant [17 x i8] c"test_dh_paramgen\00", align 1
@.str.14 = private unnamed_addr constant [22 x i8] c"test_dh_paramfromdata\00", align 1
@.str.15 = private unnamed_addr constant [28 x i8] c"test_rsa_tofrom_data_select\00", align 1
@.str.16 = private unnamed_addr constant [22 x i8] c"test_pkey_todata_null\00", align 1
@.str.17 = private unnamed_addr constant [22 x i8] c"test_pkey_export_null\00", align 1
@.str.18 = private unnamed_addr constant [17 x i8] c"test_pkey_export\00", align 1
@.str.19 = private unnamed_addr constant [22 x i8] c"test_pkcs8key_nid_bio\00", align 1
@.str.20 = private unnamed_addr constant [27 x i8] c"test_PEM_read_bio_negative\00", align 1
@.str.21 = private unnamed_addr constant [42 x i8] c"test_PEM_read_bio_negative_wrong_password\00", align 1
@.str.22 = private unnamed_addr constant [18 x i8] c"test_rsa_pss_sign\00", align 1
@.str.23 = private unnamed_addr constant [20 x i8] c"test_evp_md_ctx_dup\00", align 1
@.str.24 = private unnamed_addr constant [21 x i8] c"test_evp_md_ctx_copy\00", align 1
@.str.25 = private unnamed_addr constant [22 x i8] c"test_evp_md_ctx_copy2\00", align 1
@.str.26 = private unnamed_addr constant [31 x i8] c"test_provider_unload_effective\00", align 1
@.str.27 = private unnamed_addr constant [21 x i8] c"test_evp_pbe_alg_add\00", align 1

; Function Attrs: nounwind uwtable
define dso_local i32 @setup_tests() #0 {
  %1 = alloca i32, align 4
  %2 = call i32 @test_get_libctx(ptr noundef @mainctx, ptr noundef @nullprov, ptr noundef null, ptr noundef null, ptr noundef null)
  %3 = icmp ne i32 %2, 0
  br i1 %3, label %6, label %4

4:                                                ; preds = %0
  %5 = load ptr, ptr @mainctx, align 8, !tbaa !4
  call void @OSSL_LIB_CTX_free(ptr noundef %5)
  store ptr null, ptr @mainctx, align 8, !tbaa !4
  store i32 0, ptr %1, align 4
  br label %7

6:                                                ; preds = %0
  call void @add_test(ptr noundef @.str, ptr noundef @evp_test_name_parsing)
  call void @add_test(ptr noundef @.str.1, ptr noundef @test_alternative_default)
  call void @add_all_tests(ptr noundef @.str.2, ptr noundef @test_d2i_AutoPrivateKey_ex, i32 noundef 6, i32 noundef 1)
  call void @add_test(ptr noundef @.str.3, ptr noundef @test_new_keytype)
  call void @add_all_tests(ptr noundef @.str.4, ptr noundef @test_d2i_PrivateKey_ex, i32 noundef 2, i32 noundef 1)
  call void @add_test(ptr noundef @.str.5, ptr noundef @test_ec_tofrom_data_select)
  call void @add_test(ptr noundef @.str.6, ptr noundef @test_ecx_tofrom_data_select)
  call void @add_test(ptr noundef @.str.7, ptr noundef @test_ec_d2i_i2d_pubkey)
  call void @add_test(ptr noundef @.str.8, ptr noundef @test_sm2_tofrom_data_select)
  call void @add_test(ptr noundef @.str.9, ptr noundef @test_dsa_todata)
  call void @add_test(ptr noundef @.str.10, ptr noundef @test_dsa_tofrom_data_select)
  call void @add_all_tests(ptr noundef @.str.11, ptr noundef @test_dsa_fromdata_digest_prop, i32 noundef 2, i32 noundef 1)
  call void @add_test(ptr noundef @.str.12, ptr noundef @test_dh_tofrom_data_select)
  call void @add_test(ptr noundef @.str.13, ptr noundef @test_dh_paramgen)
  call void @add_test(ptr noundef @.str.14, ptr noundef @test_dh_paramfromdata)
  call void @add_test(ptr noundef @.str.15, ptr noundef @test_rsa_tofrom_data_select)
  call void @add_test(ptr noundef @.str.16, ptr noundef @test_pkey_todata_null)
  call void @add_test(ptr noundef @.str.17, ptr noundef @test_pkey_export_null)
  call void @add_test(ptr noundef @.str.18, ptr noundef @test_pkey_export)
  call void @add_test(ptr noundef @.str.19, ptr noundef @test_pkcs8key_nid_bio)
  call void @add_all_tests(ptr noundef @.str.20, ptr noundef @test_PEM_read_bio_negative, i32 noundef 6, i32 noundef 1)
  call void @add_all_tests(ptr noundef @.str.21, ptr noundef @test_PEM_read_bio_negative_wrong_password, i32 noundef 2, i32 noundef 1)
  call void @add_test(ptr noundef @.str.22, ptr noundef @test_rsa_pss_sign)
  call void @add_test(ptr noundef @.str.23, ptr noundef @test_evp_md_ctx_dup)
  call void @add_test(ptr noundef @.str.24, ptr noundef @test_evp_md_ctx_copy)
  call void @add_test(ptr noundef @.str.25, ptr noundef @test_evp_md_ctx_copy2)
  call void @add_all_tests(ptr noundef @.str.26, ptr noundef @test_provider_unload_effective, i32 noundef 2, i32 noundef 1)
  call void @add_test(ptr noundef @.str.27, ptr noundef @test_evp_pbe_alg_add)
  store i32 1, ptr %1, align 4
  br label %7

7:                                                ; preds = %6, %4
  %8 = load i32, ptr %1, align 4
  ret i32 %8
}