; Function Attrs: nounwind uwtable
define dso_local range(i32 0, 2) i32 @setup_tests() local_unnamed_addr #0 {
  %1 = tail call i32 @test_get_libctx(ptr noundef nonnull @mainctx, ptr noundef nonnull @nullprov, ptr noundef null, ptr noundef null, ptr noundef null) #7
  %.not = icmp eq i32 %1, 0
  br i1 %.not, label %2, label %4

2:                                                ; preds = %0
  %3 = load ptr, ptr @mainctx, align 8, !tbaa !4
  tail call void @OSSL_LIB_CTX_free(ptr noundef %3) #7
  store ptr null, ptr @mainctx, align 8, !tbaa !4
  br label %5

4:                                                ; preds = %0
  tail call void @add_test(ptr noundef nonnull @.str, ptr noundef nonnull @evp_test_name_parsing) #7
  tail call void @add_test(ptr noundef nonnull @.str.1, ptr noundef nonnull @test_alternative_default) #7
  tail call void @add_all_tests(ptr noundef nonnull @.str.2, ptr noundef nonnull @test_d2i_AutoPrivateKey_ex, i32 noundef 6, i32 noundef 1) #7
  tail call void @add_test(ptr noundef nonnull @.str.3, ptr noundef nonnull @test_new_keytype) #7
  tail call void @add_all_tests(ptr noundef nonnull @.str.4, ptr noundef nonnull @test_d2i_PrivateKey_ex, i32 noundef 2, i32 noundef 1) #7
  tail call void @add_test(ptr noundef nonnull @.str.5, ptr noundef nonnull @test_ec_tofrom_data_select) #7
  tail call void @add_test(ptr noundef nonnull @.str.6, ptr noundef nonnull @test_ecx_tofrom_data_select) #7
  tail call void @add_test(ptr noundef nonnull @.str.7, ptr noundef nonnull @test_ec_d2i_i2d_pubkey) #7
  tail call void @add_test(ptr noundef nonnull @.str.8, ptr noundef nonnull @test_sm2_tofrom_data_select) #7
  tail call void @add_test(ptr noundef nonnull @.str.9, ptr noundef nonnull @test_dsa_todata) #7
  tail call void @add_test(ptr noundef nonnull @.str.10, ptr noundef nonnull @test_dsa_tofrom_data_select) #7
  tail call void @add_all_tests(ptr noundef nonnull @.str.11, ptr noundef nonnull @test_dsa_fromdata_digest_prop, i32 noundef 2, i32 noundef 1) #7
  tail call void @add_test(ptr noundef nonnull @.str.12, ptr noundef nonnull @test_dh_tofrom_data_select) #7
  tail call void @add_test(ptr noundef nonnull @.str.13, ptr noundef nonnull @test_dh_paramgen) #7
  tail call void @add_test(ptr noundef nonnull @.str.14, ptr noundef nonnull @test_dh_paramfromdata) #7
  tail call void @add_test(ptr noundef nonnull @.str.15, ptr noundef nonnull @test_rsa_tofrom_data_select) #7
  tail call void @add_test(ptr noundef nonnull @.str.16, ptr noundef nonnull @test_pkey_todata_null) #7
  tail call void @add_test(ptr noundef nonnull @.str.17, ptr noundef nonnull @test_pkey_export_null) #7
  tail call void @add_test(ptr noundef nonnull @.str.18, ptr noundef nonnull @test_pkey_export) #7
  tail call void @add_test(ptr noundef nonnull @.str.19, ptr noundef nonnull @test_pkcs8key_nid_bio) #7
  tail call void @add_all_tests(ptr noundef nonnull @.str.20, ptr noundef nonnull @test_PEM_read_bio_negative, i32 noundef 6, i32 noundef 1) #7
  tail call void @add_all_tests(ptr noundef nonnull @.str.21, ptr noundef nonnull @test_PEM_read_bio_negative_wrong_password, i32 noundef 2, i32 noundef 1) #7
  tail call void @add_test(ptr noundef nonnull @.str.22, ptr noundef nonnull @test_rsa_pss_sign) #7
  tail call void @add_test(ptr noundef nonnull @.str.23, ptr noundef nonnull @test_evp_md_ctx_dup) #7
  tail call void @add_test(ptr noundef nonnull @.str.24, ptr noundef nonnull @test_evp_md_ctx_copy) #7
  tail call void @add_test(ptr noundef nonnull @.str.25, ptr noundef nonnull @test_evp_md_ctx_copy2) #7
  tail call void @add_all_tests(ptr noundef nonnull @.str.26, ptr noundef nonnull @test_provider_unload_effective, i32 noundef 2, i32 noundef 1) #7
  tail call void @add_test(ptr noundef nonnull @.str.27, ptr noundef nonnull @test_evp_pbe_alg_add) #7
  br label %5

5:                                                ; preds = %4, %2
  %.0 = phi i32 [ 1, %4 ], [ 0, %2 ]
  ret i32 %.0
}